; Function Attrs: null_pointer_is_valid sspstrong uwtable
define internal i32 @samr_dissect_element_ChangePasswordUser3_lm_verifier_(ptr noundef %0, i32 noundef %1, ptr noundef %2, ptr noundef %3, ptr noundef %4, ptr noundef %5) #0 {
  %.not.i = icmp eq ptr %3, null
  br i1 %.not.i, label %12, label %7

7:                                                ; preds = %6
  %8 = load i32, ptr @hf_samr_samr_ChangePasswordUser3_lm_verifier, align 4
  %9 = tail call ptr @proto_tree_add_item(ptr noundef nonnull %3, i32 noundef %8, ptr noundef %0, i32 noundef %1, i32 noundef -1, i32 noundef 0)
  %10 = load i32, ptr @ett_samr_samr_Password, align 4
  %11 = tail call ptr @proto_item_add_subtree(ptr noundef %9, i32 noundef %10)
  br label %12

12:                                               ; preds = %7, %6
  %.016.i = phi ptr [ %9, %7 ], [ null, %6 ]
  %.0.i = phi ptr [ %11, %7 ], [ null, %6 ]
  br label %13

13:                                               ; preds = %13, %12
  %.010.i.i = phi i32 [ 0, %12 ], [ %16, %13 ]
  %.089.i.i = phi i32 [ %1, %12 ], [ %15, %13 ]
  %14 = load i32, ptr @hf_samr_samr_Password_hash, align 4
  %15 = tail call i32 @PIDL_dissect_uint8(ptr noundef %0, i32 noundef %.089.i.i, ptr noundef %2, ptr noundef %.0.i, ptr noundef %4, ptr noundef %5, i32 noundef %14, i32 noundef 0)
  %16 = add nuw nsw i32 %.010.i.i, 1
  %exitcond.not.i.i = icmp eq i32 %16, 16
  br i1 %exitcond.not.i.i, label %samr_dissect_struct_Password.exit, label %13, !llvm.loop !8

samr_dissect_struct_Password.exit:                ; preds = %13
  %17 = sub i32 %15, %1
  tail call void @proto_item_set_len(ptr noundef %.016.i, i32 noundef %17)
  ret i32 %15
}